target datalayout = "e-m:e-p270:32:32-p271:32:32-p272:64:64-i64:64-i128:128-f80:128-n8:16:32:64-S128"
target triple = "x86_64-unknown-linux-gnu"

%struct.E1000State_st = type { %struct.PCIDevice, ptr, %struct.NICConf, %struct.MemoryRegion, %struct.MemoryRegion, [32768 x i32], [32 x i16], [64 x i16], i32, i32, %struct.e1000_tx, %struct.anon, ptr, ptr, i8, i8, i32, ptr, i32, i8, i8, %struct.e1000x_txd_props }
%struct.PCIDevice = type { %struct.DeviceState, i8, i8, ptr, ptr, ptr, ptr, ptr, i32, %struct.PCIReqIDCache, [64 x i8], [7 x %struct.PCIIORegion], %struct.AddressSpace, %struct.MemoryRegion, %struct.MemoryRegion, ptr, ptr, [3 x ptr], i8, i8, i32, i8, i32, ptr, ptr, ptr, ptr, ptr, ptr, %struct.MemoryRegion, %struct.MemoryRegion, %struct.MemoryRegion, ptr, i8, i32, i8, %struct.PCIExpressDevice, ptr, ptr, i32, i8, %struct.MemoryRegion, i32, ptr, ptr, ptr, ptr, ptr, i32 }
%struct.DeviceState = type { %struct.Object, ptr, ptr, i8, i8, i64, ptr, i32, i8, ptr, %struct.NamedGPIOListHead, %struct.NamedClockListHead, %struct.BusStateHead, i32, i32, i32, %struct.ResettableState, ptr, %struct.MemReentrancyGuard }
%struct.Object = type { ptr, ptr, ptr, i32, ptr }
%struct.NamedGPIOListHead = type { ptr }
%struct.NamedClockListHead = type { ptr }
%struct.BusStateHead = type { ptr }
%struct.ResettableState = type { i32, i8, i8 }
%struct.MemReentrancyGuard = type { i8 }
%struct.PCIReqIDCache = type { ptr, i32 }
%struct.PCIIORegion = type { i64, i64, i8, ptr, ptr }
%struct.AddressSpace = type { %struct.rcu_head, ptr, ptr, ptr, i32, i32, ptr, %union.anon, %union.anon.0 }
%struct.rcu_head = type { ptr, ptr }
%union.anon = type { %struct.QTailQLink }
%struct.QTailQLink = type { ptr, ptr }
%union.anon.0 = type { %struct.QTailQLink }
%struct.PCIExpressDevice = type { i8, i8, i8, i16, %struct.PCIEAERLog, i16, i16, i16, %struct.PCIESriovPF, %struct.PCIESriovVF }
%struct.PCIEAERLog = type { i16, i16, ptr }
%struct.PCIESriovPF = type { i16, [7 x i8], ptr, ptr }
%struct.PCIESriovVF = type { ptr, i16 }
%struct.NICConf = type { %struct.MACAddr, %struct.NICPeers, i32 }
%struct.MACAddr = type { [6 x i8] }
%struct.NICPeers = type { [1024 x ptr], i32 }
%struct.MemoryRegion = type { %struct.Object, i8, i8, i8, i8, i8, i8, i8, i8, i8, i8, ptr, ptr, ptr, ptr, ptr, ptr, i32, i128, i64, ptr, i64, i8, i8, i8, i8, i8, ptr, i64, i32, %union.anon.1, %union.anon.2, %union.anon.3, ptr, i32, ptr, ptr, i8 }
%union.anon.1 = type { %struct.QTailQLink }
%union.anon.2 = type { %struct.QTailQLink }
%union.anon.3 = type { %struct.QTailQLink }
%struct.e1000_tx = type { [256 x i8], [4 x i8], [4 x i8], [65536 x i8], i16, i8, i8, i8, %struct.e1000x_txd_props, %struct.e1000x_txd_props, i16, i8 }
%struct.anon = type { i32, i16, i16, i16, i32 }
%struct.e1000x_txd_props = type { i8, i8, i16, i8, i8, i16, i32, i8, i16, i8, i8, i8 }

; Function Attrs: nounwind sspstrong uwtable
define internal i64 @e1000_mmio_read(ptr noundef %opaque, i64 noundef %addr, i32 noundef %size) #0 {
entry:
  %retval = alloca i64, align 8
  %opaque.addr = alloca ptr, align 8
  %addr.addr = alloca i64, align 8
  %size.addr = alloca i32, align 4
  %s = alloca ptr, align 8
  %index = alloca i32, align 4
  store ptr %opaque, ptr %opaque.addr, align 8
  store i64 %addr, ptr %addr.addr, align 8
  store i32 %size, ptr %size.addr, align 4
  %0 = load ptr, ptr %opaque.addr, align 8
  store ptr %0, ptr %s, align 8
  %1 = load i64, ptr %addr.addr, align 8
  %and = and i64 %1, 131071
  %shr = lshr i64 %and, 2
  %conv = trunc i64 %shr to i32
  store i32 %conv, ptr %index, align 4
  %2 = load i32, ptr %index, align 4
  %cmp = icmp ult i32 %2, 32768
  br i1 %cmp, label %land.lhs.true, label %if.else26

land.lhs.true:                                    ; preds = %entry
  %3 = load i32, ptr %index, align 4
  %idxprom = zext i32 %3 to i64
  %arrayidx = getelementptr [32768 x ptr], ptr @macreg_readops, i64 0, i64 %idxprom
  %4 = load ptr, ptr %arrayidx, align 8
  %tobool = icmp ne ptr %4, null
  br i1 %tobool, label %if.then, label %if.else26

if.then:                                          ; preds = %land.lhs.true
  %5 = load i32, ptr %index, align 4
  %idxprom2 = zext i32 %5 to i64
  %arrayidx3 = getelementptr [32768 x i8], ptr @mac_reg_access, i64 0, i64 %idxprom2
  %6 = load i8, ptr %arrayidx3, align 1
  %conv4 = zext i8 %6 to i32
  %and5 = and i32 %conv4, 2
  %tobool6 = icmp ne i32 %and5, 0
  br i1 %tobool6, label %lor.lhs.false, label %if.then13

lor.lhs.false:                                    ; preds = %if.then
  %7 = load ptr, ptr %s, align 8
  %compat_flags = getelementptr inbounds %struct.E1000State_st, ptr %7, i32 0, i32 18
  %8 = load i32, ptr %compat_flags, align 8
  %9 = load i32, ptr %index, align 4
  %idxprom7 = zext i32 %9 to i64
  %arrayidx8 = getelementptr [32768 x i8], ptr @mac_reg_access, i64 0, i64 %idxprom7
  %10 = load i8, ptr %arrayidx8, align 1
  %conv9 = zext i8 %10 to i32
  %shr10 = ashr i32 %conv9, 2
  %and11 = and i32 %8, %shr10
  %tobool12 = icmp ne i32 %and11, 0
  br i1 %tobool12, label %if.then13, label %if.else

if.then13:                                        ; preds = %lor.lhs.false, %if.then
  %11 = load i32, ptr %index, align 4
  %idxprom14 = zext i32 %11 to i64
  %arrayidx15 = getelementptr [32768 x i8], ptr @mac_reg_access, i64 0, i64 %idxprom14
  %12 = load i8, ptr %arrayidx15, align 1
  %conv16 = zext i8 %12 to i32
  %and17 = and i32 %conv16, 1
  %tobool18 = icmp ne i32 %and17, 0
  br i1 %tobool18, label %if.then19, label %if.end

if.then19:                                        ; preds = %if.then13
  br label %do.body

do.body:                                          ; preds = %if.then19
  br label %do.end

do.end:                                           ; preds = %do.body
  br label %if.end

if.end:                                           ; preds = %do.end, %if.then13
  %13 = load i32, ptr %index, align 4
  %idxprom20 = zext i32 %13 to i64
  %arrayidx21 = getelementptr [32768 x ptr], ptr @macreg_readops, i64 0, i64 %idxprom20
  %14 = load ptr, ptr %arrayidx21, align 8
  %15 = load ptr, ptr %s, align 8
  %16 = load i32, ptr %index, align 4
  %call = call i32 %14(ptr noundef %15, i32 noundef %16)
  %conv22 = zext i32 %call to i64
  store i64 %conv22, ptr %retval, align 8
  br label %return

if.else:                                          ; preds = %lor.lhs.false
  br label %do.body23

do.body23:                                        ; preds = %if.else
  br label %do.end24

do.end24:                                         ; preds = %do.body23
  br label %if.end25

if.end25:                                         ; preds = %do.end24
  br label %if.end29

if.else26:                                        ; preds = %land.lhs.true, %entry
  br label %do.body27

do.body27:                                        ; preds = %if.else26
  br label %do.end28

do.end28:                                         ; preds = %do.body27
  br label %if.end29

if.end29:                                         ; preds = %do.end28, %if.end25
  store i64 0, ptr %retval, align 8
  br label %return

return:                                           ; preds = %if.end29, %if.end
  %17 = load i64, ptr %retval, align 8
  ret i64 %17
}