; Function Attrs: nounwind sspstrong uwtable
define internal range(i64 0, 4294967296) i64 @e1000_mmio_read(ptr noundef %opaque, i64 noundef %addr, i32 %size) #0 {
entry:
  %0 = trunc i64 %addr to i32
  %1 = lshr i32 %0, 2
  %conv = and i32 %1, 32767
  %idxprom = zext nneg i32 %conv to i64
  %arrayidx = getelementptr [32768 x ptr], ptr @macreg_readops, i64 0, i64 %idxprom
  %2 = load ptr, ptr %arrayidx, align 8
  %tobool.not = icmp eq ptr %2, null
  br i1 %tobool.not, label %return, label %if.then

if.then:                                          ; preds = %entry
  %arrayidx3 = getelementptr [32768 x i8], ptr @mac_reg_access, i64 0, i64 %idxprom
  %3 = load i8, ptr %arrayidx3, align 1
  %conv4 = zext i8 %3 to i32
  %and5 = and i32 %conv4, 2
  %tobool6.not = icmp eq i32 %and5, 0
  br i1 %tobool6.not, label %if.then13, label %lor.lhs.false

lor.lhs.false:                                    ; preds = %if.then
  %compat_flags = getelementptr inbounds nuw i8, ptr %opaque, i64 208552
  %4 = load i32, ptr %compat_flags, align 8
  %shr10 = lshr i32 %conv4, 2
  %and11 = and i32 %4, %shr10
  %tobool12.not = icmp eq i32 %and11, 0
  br i1 %tobool12.not, label %return, label %if.then13

if.then13:                                        ; preds = %lor.lhs.false, %if.then
  %call = tail call i32 %2(ptr noundef %opaque, i32 noundef %conv) #13
  %conv22 = zext i32 %call to i64
  br label %return

return:                                           ; preds = %lor.lhs.false, %entry, %if.then13
  %retval.0 = phi i64 [ %conv22, %if.then13 ], [ 0, %entry ], [ 0, %lor.lhs.false ]
  ret i64 %retval.0
}